; Function Attrs: inlinehint mustprogress nounwind uwtable
define internal fastcc void @_ZN7testing8internal23CartesianProductHolder3INS0_11ValueArray4IN2cv5Size_IiEES5_S5_S5_EENS0_11ValueArray3IiiiEENS0_14ParamGeneratorIN11opencv_test12_GLOBAL__N_13ROpEEEED2Ev(ptr noundef nonnull readonly align 8 dereferenceable(64) %0) unnamed_addr #9 align 2 personality ptr @__gxx_personality_v0 {
  %2 = getelementptr inbounds nuw i8, ptr %0, i64 48
  %3 = getelementptr inbounds nuw i8, ptr %0, i64 56
  invoke void @_ZN7testing8internal9MutexBase4LockEv(ptr noundef nonnull align 8 dereferenceable(56) @_ZN7testing8internal18g_linked_ptr_mutexE)
          to label %.noexc.i.i unwind label %19

.noexc.i.i:                                       ; preds = %1
  %4 = load ptr, ptr %3, align 8, !tbaa !29
  %5 = icmp eq ptr %4, %3
  br i1 %5, label %8, label %.preheader.i.i.i.i

.preheader.i.i.i.i:                               ; preds = %.noexc.i.i, %.preheader.i.i.i.i
  %.0.i.i.i.i = phi ptr [ %6, %.preheader.i.i.i.i ], [ %4, %.noexc.i.i ]
  %6 = load ptr, ptr %.0.i.i.i.i, align 8, !tbaa !29
  %.not.i.i.i.i = icmp eq ptr %6, %3
  br i1 %.not.i.i.i.i, label %7, label %.preheader.i.i.i.i, !llvm.loop !101

7:                                                ; preds = %.preheader.i.i.i.i
  store ptr %4, ptr %.0.i.i.i.i, align 8, !tbaa !29
  br label %8

8:                                                ; preds = %7, %.noexc.i.i
  invoke void @_ZN7testing8internal9MutexBase6UnlockEv(ptr noundef nonnull align 8 dereferenceable(56) @_ZN7testing8internal18g_linked_ptr_mutexE)
          to label %_ZN7testing8internal19linked_ptr_internal6departEv.exit.i.i.i unwind label %9

9:                                                ; preds = %8
  %10 = landingpad { ptr, i32 }
          catch ptr null
  %11 = extractvalue { ptr, i32 } %10, 0
  tail call void @__clang_call_terminate(ptr %11) #32
  unreachable

_ZN7testing8internal19linked_ptr_internal6departEv.exit.i.i.i: ; preds = %8
  br i1 %5, label %12, label %_ZN7testing8internal14ParamGeneratorIN11opencv_test12_GLOBAL__N_13ROpEED2Ev.exit

12:                                               ; preds = %_ZN7testing8internal19linked_ptr_internal6departEv.exit.i.i.i
  %13 = load ptr, ptr %2, align 8, !tbaa !91
  %14 = icmp eq ptr %13, null
  br i1 %14, label %_ZN7testing8internal14ParamGeneratorIN11opencv_test12_GLOBAL__N_13ROpEED2Ev.exit, label %15

15:                                               ; preds = %12
  %16 = load ptr, ptr %13, align 8, !tbaa !19
  %17 = getelementptr inbounds nuw i8, ptr %16, i64 8
  %18 = load ptr, ptr %17, align 8
  tail call void %18(ptr noundef nonnull align 8 dereferenceable(8) %13) #30
  br label %_ZN7testing8internal14ParamGeneratorIN11opencv_test12_GLOBAL__N_13ROpEED2Ev.exit

19:                                               ; preds = %1
  %20 = landingpad { ptr, i32 }
          catch ptr null
  %21 = extractvalue { ptr, i32 } %20, 0
  tail call void @__clang_call_terminate(ptr %21) #32
  unreachable

_ZN7testing8internal14ParamGeneratorIN11opencv_test12_GLOBAL__N_13ROpEED2Ev.exit: ; preds = %_ZN7testing8internal19linked_ptr_internal6departEv.exit.i.i.i, %12, %15
  ret void
}